target datalayout = "e-m:e-p270:32:32-p271:32:32-p272:64:64-i64:64-i128:128-f80:128-n8:16:32:64-S128"
target triple = "x86_64-pc-linux-gnu"

%struct.FunctionCallInfoBaseData = type { ptr, ptr, ptr, i32, i8, i16, [0 x %struct.NullableDatum] }
%struct.NullableDatum = type { i64, i8 }

; Function Attrs: inlinehint nounwind uwtable
define internal i64 @Int32GetDatum(i32 noundef %0) #2 {
  %2 = alloca i32, align 4
  store i32 %0, ptr %2, align 4
  %3 = load i32, ptr %2, align 4
  %4 = sext i32 %3 to i64
  ret i64 %4
}

; Function Attrs: inlinehint nounwind uwtable
define internal signext i16 @DatumGetInt16(i64 noundef %0) #2 {
  %2 = alloca i64, align 8
  store i64 %0, ptr %2, align 8
  %3 = load i64, ptr %2, align 8
  %4 = trunc i64 %3 to i16
  ret i16 %4
}

; Function Attrs: nounwind uwtable
define dso_local i64 @in_range_int2_int2(ptr noundef %0) #0 {
  %2 = alloca ptr, align 8
  store ptr %0, ptr %2, align 8
  %3 = load ptr, ptr %2, align 8
  %4 = getelementptr inbounds nuw %struct.FunctionCallInfoBaseData, ptr %3, i32 0, i32 6
  %5 = getelementptr inbounds [0 x %struct.NullableDatum], ptr %4, i64 0, i64 0
  %6 = getelementptr inbounds nuw %struct.NullableDatum, ptr %5, i32 0, i32 0
  %7 = load i64, ptr %6, align 8
  %8 = load ptr, ptr %2, align 8
  %9 = getelementptr inbounds nuw %struct.FunctionCallInfoBaseData, ptr %8, i32 0, i32 6
  %10 = getelementptr inbounds [0 x %struct.NullableDatum], ptr %9, i64 0, i64 1
  %11 = getelementptr inbounds nuw %struct.NullableDatum, ptr %10, i32 0, i32 0
  %12 = load i64, ptr %11, align 8
  %13 = load ptr, ptr %2, align 8
  %14 = getelementptr inbounds nuw %struct.FunctionCallInfoBaseData, ptr %13, i32 0, i32 6
  %15 = getelementptr inbounds [0 x %struct.NullableDatum], ptr %14, i64 0, i64 2
  %16 = getelementptr inbounds nuw %struct.NullableDatum, ptr %15, i32 0, i32 0
  %17 = load i64, ptr %16, align 8
  %18 = call signext i16 @DatumGetInt16(i64 noundef %17)
  %19 = sext i16 %18 to i32
  %20 = call i64 @Int32GetDatum(i32 noundef %19)
  %21 = load ptr, ptr %2, align 8
  %22 = getelementptr inbounds nuw %struct.FunctionCallInfoBaseData, ptr %21, i32 0, i32 6
  %23 = getelementptr inbounds [0 x %struct.NullableDatum], ptr %22, i64 0, i64 3
  %24 = getelementptr inbounds nuw %struct.NullableDatum, ptr %23, i32 0, i32 0
  %25 = load i64, ptr %24, align 8
  %26 = load ptr, ptr %2, align 8
  %27 = getelementptr inbounds nuw %struct.FunctionCallInfoBaseData, ptr %26, i32 0, i32 6
  %28 = getelementptr inbounds [0 x %struct.NullableDatum], ptr %27, i64 0, i64 4
  %29 = getelementptr inbounds nuw %struct.NullableDatum, ptr %28, i32 0, i32 0
  %30 = load i64, ptr %29, align 8
  %31 = call i64 @DirectFunctionCall5Coll(ptr noundef @in_range_int2_int4, i32 noundef 0, i64 noundef %7, i64 noundef %12, i64 noundef %20, i64 noundef %25, i64 noundef %30)
  ret i64 %31
}