; Function Attrs: nounwind uwtable
define dso_local i64 @in_range_int2_int2(ptr noundef readonly captures(none) %0) local_unnamed_addr #0 {
  %2 = getelementptr inbounds nuw i8, ptr %0, i64 32
  %3 = load i64, ptr %2, align 8
  %4 = getelementptr inbounds nuw i8, ptr %0, i64 48
  %5 = load i64, ptr %4, align 8
  %6 = getelementptr inbounds nuw i8, ptr %0, i64 64
  %7 = load i64, ptr %6, align 8
  %8 = shl i64 %7, 48
  %9 = ashr exact i64 %8, 48
  %10 = getelementptr inbounds nuw i8, ptr %0, i64 80
  %11 = load i64, ptr %10, align 8
  %12 = getelementptr inbounds nuw i8, ptr %0, i64 96
  %13 = load i64, ptr %12, align 8
  %14 = tail call i64 @DirectFunctionCall5Coll(ptr noundef nonnull @in_range_int2_int4, i32 noundef 0, i64 noundef %3, i64 noundef %5, i64 noundef %9, i64 noundef %11, i64 noundef %13) #13
  ret i64 %14
}